; Function Attrs: mustprogress nounwind uwtable
define internal void @_ZN4llvm12function_refIFvRKNS_12DWARFSectionEEE11callback_fnIZN12_GLOBAL__N_129ThreadUnsafeDWARFContextState11getDWOUnitsEbEUlS3_E_EEvlS3_(i64 noundef %0, ptr noundef nonnull align 8 dereferenceable(24) %1) #0 align 2 {
  %3 = inttoptr i64 %0 to ptr
  %.val = load ptr, ptr %3, align 8
  %4 = getelementptr i8, ptr %3, i64 8
  %.val1 = load ptr, ptr %4, align 8
  %.val1.val = load i8, ptr %.val1, align 1
  %5 = getelementptr inbounds nuw i8, ptr %.val, i64 240
  %6 = getelementptr inbounds nuw i8, ptr %.val, i64 8
  %7 = load ptr, ptr %6, align 8
  %8 = trunc i8 %.val1.val to i1
  tail call void @_ZN4llvm15DWARFUnitVector21addUnitsForDWOSectionERNS_12DWARFContextERKNS_12DWARFSectionENS_16DWARFSectionKindEb(ptr noundef nonnull align 8 dereferenceable(64) %5, ptr noundef nonnull align 8 dereferenceable(105) %7, ptr noundef nonnull align 8 dereferenceable(24) %1, i32 noundef 1, i1 noundef zeroext %8) #24
  ret void
}